target datalayout = "e-m:e-p270:32:32-p271:32:32-p272:64:64-i64:64-i128:128-f80:128-n8:16:32:64-S128"
target triple = "x86_64-unknown-linux-gnu"

%struct.PCIDevice = type { %struct.DeviceState, i8, i8, ptr, ptr, ptr, ptr, ptr, i32, %struct.PCIReqIDCache, [64 x i8], [7 x %struct.PCIIORegion], %struct.AddressSpace, %struct.MemoryRegion, %struct.MemoryRegion, ptr, ptr, [3 x ptr], i8, i8, i32, i8, i32, ptr, ptr, ptr, ptr, ptr, ptr, %struct.MemoryRegion, %struct.MemoryRegion, %struct.MemoryRegion, ptr, i8, i32, i8, %struct.PCIExpressDevice, ptr, ptr, i32, i8, %struct.MemoryRegion, i32, ptr, ptr, ptr, ptr, ptr, i32 }
%struct.DeviceState = type { %struct.Object, ptr, ptr, i8, i8, i64, ptr, i32, i8, ptr, %struct.NamedGPIOListHead, %struct.NamedClockListHead, %struct.BusStateHead, i32, i32, i32, %struct.ResettableState, ptr, %struct.MemReentrancyGuard }
%struct.Object = type { ptr, ptr, ptr, i32, ptr }
%struct.NamedGPIOListHead = type { ptr }
%struct.NamedClockListHead = type { ptr }
%struct.BusStateHead = type { ptr }
%struct.ResettableState = type { i32, i8, i8 }
%struct.MemReentrancyGuard = type { i8 }
%struct.PCIReqIDCache = type { ptr, i32 }
%struct.PCIIORegion = type { i64, i64, i8, ptr, ptr }
%struct.AddressSpace = type { %struct.rcu_head, ptr, ptr, ptr, i32, i32, ptr, %union.anon, %union.anon.0 }
%struct.rcu_head = type { ptr, ptr }
%union.anon = type { %struct.QTailQLink }
%struct.QTailQLink = type { ptr, ptr }
%union.anon.0 = type { %struct.QTailQLink }
%struct.PCIExpressDevice = type { i8, i8, i8, i16, %struct.PCIEAERLog, i16, i16, i16, %struct.PCIESriovPF, %struct.PCIESriovVF }
%struct.PCIEAERLog = type { i16, i16, ptr }
%struct.PCIESriovPF = type { i16, [7 x i8], ptr, ptr }
%struct.PCIESriovVF = type { ptr, i16 }
%struct.MemoryRegion = type { %struct.Object, i8, i8, i8, i8, i8, i8, i8, i8, i8, i8, ptr, ptr, ptr, ptr, ptr, ptr, i32, i128, i64, ptr, i64, i8, i8, i8, i8, i8, ptr, i64, i32, %union.anon.1, %union.anon.2, %union.anon.3, ptr, i32, ptr, ptr, i8 }
%union.anon.1 = type { %struct.QTailQLink }
%union.anon.2 = type { %struct.QTailQLink }
%union.anon.3 = type { %struct.QTailQLink }

@xen_allowed = external global i8, align 1

; Function Attrs: nounwind sspstrong uwtable
define internal i32 @ldl_he_p(ptr noundef %ptr) #0 {
entry:
  %ptr.addr = alloca ptr, align 8
  %r = alloca i32, align 4
  store ptr %ptr, ptr %ptr.addr, align 8
  %0 = load ptr, ptr %ptr.addr, align 8
  call void @llvm.memcpy.p0.p0.i64(ptr align 4 %r, ptr align 1 %0, i64 4, i1 false)
  %1 = load i32, ptr %r, align 4
  ret i32 %1
}

; Function Attrs: nounwind sspstrong uwtable
define internal i32 @ldl_le_p(ptr noundef %ptr) #0 {
entry:
  %ptr.addr = alloca ptr, align 8
  store ptr %ptr, ptr %ptr.addr, align 8
  %0 = load ptr, ptr %ptr.addr, align 8
  %call = call i32 @ldl_he_p(ptr noundef %0)
  ret i32 %call
}

; Function Attrs: nounwind sspstrong uwtable
define internal i32 @pci_get_long(ptr noundef %config) #0 {
entry:
  %config.addr = alloca ptr, align 8
  store ptr %config, ptr %config.addr, align 8
  %0 = load ptr, ptr %config.addr, align 8
  %call = call i32 @ldl_le_p(ptr noundef %0)
  ret i32 %call
}

; Function Attrs: nounwind sspstrong uwtable
define internal zeroext i1 @msix_vector_masked(ptr noundef %dev, i32 noundef %vector, i1 noundef zeroext %fmask) #0 {
entry:
  %retval = alloca i1, align 1
  %dev.addr = alloca ptr, align 8
  %vector.addr = alloca i32, align 4
  %fmask.addr = alloca i8, align 1
  %offset = alloca i32, align 4
  %data = alloca ptr, align 8
  store ptr %dev, ptr %dev.addr, align 8
  store i32 %vector, ptr %vector.addr, align 4
  %frombool = zext i1 %fmask to i8
  store i8 %frombool, ptr %fmask.addr, align 1
  %0 = load i32, ptr %vector.addr, align 4
  %mul = mul i32 %0, 16
  store i32 %mul, ptr %offset, align 4
  %1 = load ptr, ptr %dev.addr, align 8
  %msix_table = getelementptr inbounds %struct.PCIDevice, ptr %1, i32 0, i32 23
  %2 = load ptr, ptr %msix_table, align 8
  %3 = load i32, ptr %offset, align 4
  %add = add i32 %3, 8
  %idxprom = zext i32 %add to i64
  %arrayidx = getelementptr i8, ptr %2, i64 %idxprom
  store ptr %arrayidx, ptr %data, align 8
  %4 = load i8, ptr @xen_allowed, align 1
  %tobool = trunc i8 %4 to i1
  br i1 %tobool, label %land.lhs.true, label %if.end

land.lhs.true:                                    ; preds = %entry
  %5 = load ptr, ptr %data, align 8
  %call = call i32 @pci_get_long(ptr noundef %5)
  %call1 = call i32 @xen_is_pirq_msi(i32 noundef %call)
  %tobool2 = icmp ne i32 %call1, 0
  br i1 %tobool2, label %if.then, label %if.end

if.then:                                          ; preds = %land.lhs.true
  store i1 false, ptr %retval, align 1
  br label %return

if.end:                                           ; preds = %land.lhs.true, %entry
  %6 = load i8, ptr %fmask.addr, align 1
  %tobool3 = trunc i8 %6 to i1
  br i1 %tobool3, label %lor.end, label %lor.rhs

lor.rhs:                                          ; preds = %if.end
  %7 = load ptr, ptr %dev.addr, align 8
  %msix_table4 = getelementptr inbounds %struct.PCIDevice, ptr %7, i32 0, i32 23
  %8 = load ptr, ptr %msix_table4, align 8
  %9 = load i32, ptr %offset, align 4
  %add5 = add i32 %9, 12
  %idxprom6 = zext i32 %add5 to i64
  %arrayidx7 = getelementptr i8, ptr %8, i64 %idxprom6
  %10 = load i8, ptr %arrayidx7, align 1
  %conv = zext i8 %10 to i32
  %and = and i32 %conv, 1
  %tobool8 = icmp ne i32 %and, 0
  br label %lor.end

lor.end:                                          ; preds = %lor.rhs, %if.end
  %11 = phi i1 [ true, %if.end ], [ %tobool8, %lor.rhs ]
  store i1 %11, ptr %retval, align 1
  br label %return

return:                                           ; preds = %lor.end, %if.then
  %12 = load i1, ptr %retval, align 1
  ret i1 %12
}

; Function Attrs: nounwind sspstrong uwtable
define dso_local zeroext i1 @msix_is_masked(ptr noundef %dev, i32 noundef %vector) #0 {
entry:
  %dev.addr = alloca ptr, align 8
  %vector.addr = alloca i32, align 4
  store ptr %dev, ptr %dev.addr, align 8
  store i32 %vector, ptr %vector.addr, align 4
  %0 = load ptr, ptr %dev.addr, align 8
  %1 = load i32, ptr %vector.addr, align 4
  %2 = load ptr, ptr %dev.addr, align 8
  %msix_function_masked = getelementptr inbounds %struct.PCIDevice, ptr %2, i32 0, i32 33
  %3 = load i8, ptr %msix_function_masked, align 8
  %tobool = trunc i8 %3 to i1
  %call = call zeroext i1 @msix_vector_masked(ptr noundef %0, i32 noundef %1, i1 noundef zeroext %tobool)
  ret i1 %call
}