; Function Attrs: nounwind sspstrong uwtable
define dso_local zeroext i1 @msix_is_masked(ptr noundef readonly captures(none) %dev, i32 noundef %vector) local_unnamed_addr #0 {
entry:
  %msix_function_masked = getelementptr inbounds nuw i8, ptr %dev, i64 2152
  %0 = load i8, ptr %msix_function_masked, align 8
  %tobool = trunc i8 %0 to i1
  %mul.i = shl i32 %vector, 4
  %msix_table.i = getelementptr inbounds nuw i8, ptr %dev, i64 1272
  %1 = load i8, ptr @xen_allowed, align 1
  %tobool.i = trunc i8 %1 to i1
  br i1 %tobool.i, label %land.lhs.true.i, label %if.end.i

land.lhs.true.i:                                  ; preds = %entry
  %2 = load ptr, ptr %msix_table.i, align 8
  %add.i = or disjoint i32 %mul.i, 8
  %idxprom.i = zext i32 %add.i to i64
  %arrayidx.i = getelementptr i8, ptr %2, i64 %idxprom.i
  %arrayidx.val.i = load i32, ptr %arrayidx.i, align 1
  %call1.i = tail call i32 @xen_is_pirq_msi(i32 noundef %arrayidx.val.i) #14
  %tobool2.not.i = icmp ne i32 %call1.i, 0
  %brmerge.i = or i1 %tobool2.not.i, %tobool
  %not.tobool2.not.i = xor i1 %tobool2.not.i, true
  br i1 %brmerge.i, label %msix_vector_masked.exit, label %lor.rhs.i

if.end.i:                                         ; preds = %entry
  br i1 %tobool, label %msix_vector_masked.exit, label %lor.rhs.i

lor.rhs.i:                                        ; preds = %if.end.i, %land.lhs.true.i
  %3 = load ptr, ptr %msix_table.i, align 8
  %add5.i = or disjoint i32 %mul.i, 12
  %idxprom6.i = zext i32 %add5.i to i64
  %arrayidx7.i = getelementptr i8, ptr %3, i64 %idxprom6.i
  %4 = load i8, ptr %arrayidx7.i, align 1
  %5 = and i8 %4, 1
  %tobool8.i = icmp ne i8 %5, 0
  br label %msix_vector_masked.exit

msix_vector_masked.exit:                          ; preds = %land.lhs.true.i, %if.end.i, %lor.rhs.i
  %retval.0.i = phi i1 [ %not.tobool2.not.i, %land.lhs.true.i ], [ true, %if.end.i ], [ %tobool8.i, %lor.rhs.i ]
  ret i1 %retval.0.i
}